; Function Attrs: nounwind sspstrong uwtable
define dso_local i32 @postcopy_place_page(ptr noundef %mis, ptr noundef %host, ptr noundef %from, ptr noundef %rb) local_unnamed_addr #0 {
entry:
  %_now.i.i = alloca %struct.timeval, align 8
  %call = tail call i64 @qemu_ram_pagesize(ptr noundef %rb) #16
  %call1 = tail call fastcc i32 @qemu_ufd_copy_ioctl(ptr noundef %mis, ptr noundef %host, ptr noundef %from, i64 noundef %call, ptr noundef %rb)
  %tobool.not = icmp eq i32 %call1, 0
  br i1 %tobool.not, label %if.end, label %if.then

if.then:                                          ; preds = %entry
  %call2 = tail call ptr @__errno_location() #18
  %0 = load i32, ptr %call2, align 4
  %call3 = tail call ptr @strerror(i32 noundef %0) #16
  tail call void (ptr, ...) @error_report(ptr noundef nonnull @.str.16, ptr noundef nonnull @__func__.postcopy_place_page, ptr noundef %call3, ptr noundef %host, ptr noundef %from, i64 noundef %call) #16
  %sub = sub i32 0, %0
  br label %return

if.end:                                           ; preds = %entry
  call void @llvm.lifetime.start.p0(i64 16, ptr nonnull %_now.i.i)
  %1 = load i32, ptr @trace_events_enabled_count, align 4
  %tobool.i.i = icmp ne i32 %1, 0
  %2 = load i16, ptr @_TRACE_POSTCOPY_PLACE_PAGE_DSTATE, align 2
  %tobool4.i.i = icmp ne i16 %2, 0
  %or.cond.i.i = select i1 %tobool.i.i, i1 %tobool4.i.i, i1 false
  br i1 %or.cond.i.i, label %land.lhs.true5.i.i, label %trace_postcopy_place_page.exit

land.lhs.true5.i.i:                               ; preds = %if.end
  %3 = load i32, ptr @qemu_loglevel, align 4
  %and.i.i.i = and i32 %3, 32768
  %cmp.i.not.i.i = icmp eq i32 %and.i.i.i, 0
  br i1 %cmp.i.not.i.i, label %trace_postcopy_place_page.exit, label %if.then.i.i

if.then.i.i:                                      ; preds = %land.lhs.true5.i.i
  %4 = load i8, ptr @message_with_timestamp, align 1
  %tobool7.i.i = trunc i8 %4 to i1
  br i1 %tobool7.i.i, label %if.then8.i.i, label %if.else.i.i

if.then8.i.i:                                     ; preds = %if.then.i.i
  %call9.i.i = call i32 @gettimeofday(ptr noundef nonnull %_now.i.i, ptr noundef null) #16
  %call10.i.i = tail call i32 @qemu_get_thread_id() #16
  %5 = load i64, ptr %_now.i.i, align 8
  %tv_usec.i.i = getelementptr inbounds nuw i8, ptr %_now.i.i, i64 8
  %6 = load i64, ptr %tv_usec.i.i, align 8
  tail call void (ptr, ...) @qemu_log(ptr noundef nonnull @.str.96, i32 noundef %call10.i.i, i64 noundef %5, i64 noundef %6, ptr noundef %host) #16
  br label %trace_postcopy_place_page.exit

if.else.i.i:                                      ; preds = %if.then.i.i
  tail call void (ptr, ...) @qemu_log(ptr noundef nonnull @.str.97, ptr noundef %host) #16
  br label %trace_postcopy_place_page.exit

trace_postcopy_place_page.exit:                   ; preds = %if.end, %land.lhs.true5.i.i, %if.then8.i.i, %if.else.i.i
  call void @llvm.lifetime.end.p0(i64 16, ptr nonnull %_now.i.i)
  %call4 = tail call i64 @qemu_ram_block_host_offset(ptr noundef %rb, ptr noundef %host) #16
  %call.i = tail call ptr @migration_incoming_get_current() #16
  %postcopy_remote_fds.i = getelementptr inbounds nuw i8, ptr %call.i, i64 552
  %7 = load ptr, ptr %postcopy_remote_fds.i, align 8
  %len.i = getelementptr inbounds nuw i8, ptr %7, i64 8
  %8 = load i32, ptr %len.i, align 8
  %cmp6.not.i = icmp eq i32 %8, 0
  br i1 %cmp6.not.i, label %return, label %for.body.i

for.cond.i:                                       ; preds = %for.body.i
  %inc.i = add nuw i32 %i.07.i, 1
  %9 = load i32, ptr %len.i, align 8
  %cmp.i = icmp ult i32 %inc.i, %9
  br i1 %cmp.i, label %for.body.i, label %return, !llvm.loop !19

for.body.i:                                       ; preds = %trace_postcopy_place_page.exit, %for.cond.i
  %i.07.i = phi i32 [ %inc.i, %for.cond.i ], [ 0, %trace_postcopy_place_page.exit ]
  %10 = load ptr, ptr %7, align 8
  %idxprom.i = sext i32 %i.07.i to i64
  %arrayidx.i = getelementptr %struct.PostCopyFD, ptr %10, i64 %idxprom.i
  %waker.i = getelementptr inbounds nuw i8, ptr %arrayidx.i, i64 24
  %11 = load ptr, ptr %waker.i, align 8
  %call1.i = tail call i32 %11(ptr noundef %arrayidx.i, ptr noundef %rb, i64 noundef %call4) #16
  %tobool.not.i = icmp eq i32 %call1.i, 0
  br i1 %tobool.not.i, label %for.cond.i, label %return

return:                                           ; preds = %for.body.i, %for.cond.i, %trace_postcopy_place_page.exit, %if.then
  %retval.0 = phi i32 [ %sub, %if.then ], [ 0, %trace_postcopy_place_page.exit ], [ %call1.i, %for.body.i ], [ 0, %for.cond.i ]
  ret i32 %retval.0
}